target datalayout = "e-m:e-p270:32:32-p271:32:32-p272:64:64-i64:64-i128:128-f80:128-n8:16:32:64-S128"
target triple = "x86_64-pc-linux-gnu"

%"class.pxrInternal_v0_24__pxrReserved__::Vt_ArrayBase" = type { %"struct.pxrInternal_v0_24__pxrReserved__::Vt_ShapeData", ptr }
%"struct.pxrInternal_v0_24__pxrReserved__::Vt_ShapeData" = type { i64, [3 x i32] }
%"class.pxrInternal_v0_24__pxrReserved__::VtArray.91" = type { %"class.pxrInternal_v0_24__pxrReserved__::Vt_ArrayBase", ptr }
%"class.pxrInternal_v0_24__pxrReserved__::GfVec2i" = type { [2 x i32] }

@.str.68 = private unnamed_addr constant [5 x i8] c"int2\00", align 1

; Function Attrs: mustprogress nounwind uwtable
define linkonce_odr dso_local void @_ZN32pxrInternal_v0_24__pxrReserved__7GfVec2iC2Eii(ptr noundef nonnull align 4 dereferenceable(8) %0, i32 noundef %1, i32 noundef %2) unnamed_addr #5 comdat align 2 {
  %4 = alloca ptr, align 8
  %5 = alloca i32, align 4
  %6 = alloca i32, align 4
  store ptr %0, ptr %4, align 8
  store i32 %1, ptr %5, align 4
  store i32 %2, ptr %6, align 4
  %7 = load ptr, ptr %4, align 8
  %8 = getelementptr inbounds nuw %"class.pxrInternal_v0_24__pxrReserved__::GfVec2i", ptr %7, i32 0, i32 0
  %9 = load i32, ptr %5, align 4
  store i32 %9, ptr %8, align 4
  %10 = getelementptr inbounds i32, ptr %8, i64 1
  %11 = load i32, ptr %6, align 4
  store i32 %11, ptr %10, align 4
  ret void
}

; Function Attrs: mustprogress uwtable
define dso_local void @_Z7GetInfoIN32pxrInternal_v0_24__pxrReserved__7GfVec2iEEvPNS0_7VtArrayIT_EEPNSt7__cxx1112basic_stringIcSt11char_traitsIcESaIcEEE(ptr noundef %0, ptr noundef %1) #4 personality ptr @__gxx_personality_v0 {
  %3 = alloca ptr, align 8
  %4 = alloca ptr, align 8
  %5 = alloca %"class.pxrInternal_v0_24__pxrReserved__::VtArray.91", align 8
  %6 = alloca ptr, align 8
  %7 = alloca i32, align 4
  %8 = alloca %"class.pxrInternal_v0_24__pxrReserved__::GfVec2i", align 4
  %9 = alloca %"class.pxrInternal_v0_24__pxrReserved__::GfVec2i", align 4
  %10 = alloca %"class.pxrInternal_v0_24__pxrReserved__::GfVec2i", align 4
  store ptr %0, ptr %3, align 8
  store ptr %1, ptr %4, align 8
  %11 = load ptr, ptr %4, align 8
  %12 = call noundef nonnull align 8 dereferenceable(32) ptr @_ZNSt7__cxx1112basic_stringIcSt11char_traitsIcESaIcEEaSEPKc(ptr noundef nonnull align 8 dereferenceable(32) %11, ptr noundef @.str.68)
  call void @_ZN32pxrInternal_v0_24__pxrReserved__7VtArrayINS_7GfVec2iEEC1Em(ptr noundef nonnull align 8 dereferenceable(40) %5, i64 noundef 3)
  %13 = load ptr, ptr %3, align 8
  %14 = invoke noundef nonnull align 8 dereferenceable(40) ptr @_ZN32pxrInternal_v0_24__pxrReserved__7VtArrayINS_7GfVec2iEEaSEOS2_(ptr noundef nonnull align 8 dereferenceable(40) %13, ptr noundef nonnull align 8 dereferenceable(40) %5)
          to label %15 unwind label %22

15:                                               ; preds = %2
  call void @_ZN32pxrInternal_v0_24__pxrReserved__7VtArrayINS_7GfVec2iEED1Ev(ptr noundef nonnull align 8 dereferenceable(40) %5) #3
  call void @_ZN32pxrInternal_v0_24__pxrReserved__7GfVec2iC2Eii(ptr noundef nonnull align 4 dereferenceable(8) %8, i32 noundef 0, i32 noundef 1)
  %16 = load ptr, ptr %3, align 8
  %17 = call noundef nonnull align 4 dereferenceable(8) ptr @_ZN32pxrInternal_v0_24__pxrReserved__7VtArrayINS_7GfVec2iEEixEm(ptr noundef nonnull align 8 dereferenceable(40) %16, i64 noundef 0)
  call void @llvm.memcpy.p0.p0.i64(ptr align 4 %17, ptr align 4 %8, i64 8, i1 false)
  call void @_ZN32pxrInternal_v0_24__pxrReserved__7GfVec2iC2Eii(ptr noundef nonnull align 4 dereferenceable(8) %9, i32 noundef 2, i32 noundef 3)
  %18 = load ptr, ptr %3, align 8
  %19 = call noundef nonnull align 4 dereferenceable(8) ptr @_ZN32pxrInternal_v0_24__pxrReserved__7VtArrayINS_7GfVec2iEEixEm(ptr noundef nonnull align 8 dereferenceable(40) %18, i64 noundef 1)
  call void @llvm.memcpy.p0.p0.i64(ptr align 4 %19, ptr align 4 %9, i64 8, i1 false)
  call void @_ZN32pxrInternal_v0_24__pxrReserved__7GfVec2iC2Eii(ptr noundef nonnull align 4 dereferenceable(8) %10, i32 noundef 4, i32 noundef 5)
  %20 = load ptr, ptr %3, align 8
  %21 = call noundef nonnull align 4 dereferenceable(8) ptr @_ZN32pxrInternal_v0_24__pxrReserved__7VtArrayINS_7GfVec2iEEixEm(ptr noundef nonnull align 8 dereferenceable(40) %20, i64 noundef 2)
  call void @llvm.memcpy.p0.p0.i64(ptr align 4 %21, ptr align 4 %10, i64 8, i1 false)
  ret void

22:                                               ; preds = %2
  %23 = landingpad { ptr, i32 }
          cleanup
  %24 = extractvalue { ptr, i32 } %23, 0
  store ptr %24, ptr %6, align 8
  %25 = extractvalue { ptr, i32 } %23, 1
  store i32 %25, ptr %7, align 4
  call void @_ZN32pxrInternal_v0_24__pxrReserved__7VtArrayINS_7GfVec2iEED1Ev(ptr noundef nonnull align 8 dereferenceable(40) %5) #3
  br label %26

26:                                               ; preds = %22
  %27 = load ptr, ptr %6, align 8
  %28 = load i32, ptr %7, align 4
  %29 = insertvalue { ptr, i32 } poison, ptr %27, 0
  %30 = insertvalue { ptr, i32 } %29, i32 %28, 1
  resume { ptr, i32 } %30
}